; Function Attrs: nounwind uwtable
define hidden void @_glfwGetWindowPosX11(ptr noundef readonly captures(none) %0, ptr noundef writeonly captures(address_is_null) %1, ptr noundef writeonly captures(address_is_null) %2) local_unnamed_addr #0 {
  %4 = alloca i64, align 8
  %5 = alloca i32, align 4
  %6 = alloca i32, align 4
  call void @llvm.lifetime.start.p0(i64 8, ptr nonnull %4) #17
  call void @llvm.lifetime.start.p0(i64 4, ptr nonnull %5) #17
  call void @llvm.lifetime.start.p0(i64 4, ptr nonnull %6) #17
  %7 = load ptr, ptr getelementptr inbounds nuw (i8, ptr @_glfw, i64 141952), align 8, !tbaa !247
  %8 = load ptr, ptr getelementptr inbounds nuw (i8, ptr @_glfw, i64 137840), align 8, !tbaa !93
  %9 = getelementptr inbounds nuw i8, ptr %0, i64 1248
  %10 = load i64, ptr %9, align 8, !tbaa !140
  %11 = load i64, ptr getelementptr inbounds nuw (i8, ptr @_glfw, i64 137856), align 8, !tbaa !198
  %12 = call i32 %7(ptr noundef %8, i64 noundef %10, i64 noundef %11, i32 noundef 0, i32 noundef 0, ptr noundef nonnull %5, ptr noundef nonnull %6, ptr noundef nonnull %4) #17
  %.not = icmp eq ptr %1, null
  br i1 %.not, label %15, label %13

13:                                               ; preds = %3
  %14 = load i32, ptr %5, align 4, !tbaa !183
  store i32 %14, ptr %1, align 4, !tbaa !183
  br label %15

15:                                               ; preds = %13, %3
  %.not6 = icmp eq ptr %2, null
  br i1 %.not6, label %18, label %16

16:                                               ; preds = %15
  %17 = load i32, ptr %6, align 4, !tbaa !183
  store i32 %17, ptr %2, align 4, !tbaa !183
  br label %18

18:                                               ; preds = %16, %15
  call void @llvm.lifetime.end.p0(i64 4, ptr nonnull %6) #17
  call void @llvm.lifetime.end.p0(i64 4, ptr nonnull %5) #17
  call void @llvm.lifetime.end.p0(i64 8, ptr nonnull %4) #17
  ret void
}